	.text
	.file	"task.c"
	.file	1 "/usr/bin/../share/upmem/include/stdlib" "stdint.h"
	.file	2 "/home/vboxuser/Dokumente/pim/if-tester" "dpu/task.c"
	.file	3 "/usr/bin/../share/upmem/include/syslib" "perfcounter.h"
	.section	.text.if_in_front,"ax",@progbits
	.globl	if_in_front                     // -- Begin function if_in_front
	.type	if_in_front,@function
if_in_front:                            // @if_in_front
.Lfunc_begin0:
	.loc	2 43 0                          // dpu/task.c:43:0
	.cfi_sections .debug_frame
	.cfi_startproc
// %bb.0:
	//DEBUG_VALUE: if_in_front:sr <- $r0
	//DEBUG_VALUE: if_in_front:buffers <- $r1
	.cfi_def_cfa_offset -80
	.cfi_offset 23, -8
	.cfi_offset 22, -4
	sd r22, 72, d22
	add r22, r22, 80
	.cfi_offset 15, -56
	.cfi_offset 14, -52
	sd r22, -56, d14
	.cfi_offset 17, -64
	.cfi_offset 16, -60
	sd r22, -64, d16
	.cfi_offset 19, -72
	.cfi_offset 18, -68
	sd r22, -72, d18
	.cfi_offset 21, -80
	.cfi_offset 20, -76
	sd r22, -80, d20
	sw r22, -20, r1
.Ltmp0:
	//DEBUG_VALUE: if_in_front:buffers <- [DW_OP_constu 20, DW_OP_minus] [$r22+0]
	move r15, r0
	//DEBUG_VALUE: run <- 64
.Ltmp1:
	//DEBUG_VALUE: if_in_front:sr <- $r15
	add r0, r15, 8
	sw r22, -16, r0
	move r18, 64, true, .LBB0_1
.Ltmp2:
.LBB0_7:                                //   in Loop: Header=BB0_1 Depth=1
	//DEBUG_VALUE: if_in_front:buffers <- [DW_OP_constu 20, DW_OP_minus] [$r22+0]
	//DEBUG_VALUE: if_in_front:sr <- $r15
	//DEBUG_VALUE: run <- [DW_OP_constu 32, DW_OP_minus] [$r22+0]
	.loc	2 44 5 prologue_end             // dpu/task.c:44:5
	lsr r0, r18, 20
	lw r18, r22, -32
.Ltmp3:
	//DEBUG_VALUE: run <- $r18
	jneq r0, 0, .LBB0_8
.Ltmp4:
.LBB0_1:                                // =>This Loop Header: Depth=1
                                        //     Child Loop BB0_2 Depth 2
                                        //       Child Loop BB0_3 Depth 3
	//DEBUG_VALUE: if_in_front:buffers <- [DW_OP_constu 20, DW_OP_minus] [$r22+0]
	//DEBUG_VALUE: if_in_front:sr <- $r15
	.loc	2 0 5 is_stmt 0                 // dpu/task.c:0:5
	move r21, 0
	lsl r0, r18, 1
	sw r22, -32, r0
	sw r22, -24, r21
.Ltmp5:
	sw r22, -28, r18
.Ltmp6:
	//DEBUG_VALUE: j <- 0
	//DEBUG_VALUE: run <- $r18
	jump .LBB0_2
.Ltmp7:
.LBB0_6:                                //   in Loop: Header=BB0_2 Depth=2
	//DEBUG_VALUE: if_in_front:buffers <- [DW_OP_constu 20, DW_OP_minus] [$r22+0]
	//DEBUG_VALUE: if_in_front:sr <- $r15
	//DEBUG_VALUE: j <- $r21
	.loc	2 45 9 is_stmt 1                // dpu/task.c:45:9
	lsr r0, r21, 21
	lw r18, r22, -28
	jneq r0, 0, .LBB0_7
.Ltmp8:
.LBB0_2:                                //   Parent Loop BB0_1 Depth=1
                                        // =>  This Loop Header: Depth=2
                                        //       Child Loop BB0_3 Depth 3
	//DEBUG_VALUE: if_in_front:buffers <- [DW_OP_constu 20, DW_OP_minus] [$r22+0]
	//DEBUG_VALUE: if_in_front:sr <- $r15
	//DEBUG_VALUE: j <- $r21
	.loc	2 0 9 is_stmt 0                 // dpu/task.c:0:9
	lw r14, r22, -20
.Ltmp9:
	.loc	2 47 30 is_stmt 1               // dpu/task.c:47:30
	lw r0, r14, 0
	.loc	2 47 43 is_stmt 0               // dpu/task.c:47:43
	move r16, input
	lsl_add r1, r16, r21, 2
	.loc	2 47 17                         // dpu/task.c:47:17
	move r2, r15
	call r23, seqread256_init
.Ltmp10:
	move r17, r0
	.loc	2 46 25 is_stmt 1               // dpu/task.c:46:25
	sw r22, -48, r17
	.loc	2 48 30                         // dpu/task.c:48:30
	lw r0, r14, 4
	.loc	2 48 51 is_stmt 0               // dpu/task.c:48:51
	add r1, r21, r18
	.loc	2 48 43                         // dpu/task.c:48:43
	lsl_add r18, r16, r1, 2
	.loc	2 48 17                         // dpu/task.c:48:17
	move r1, r18
	lw r2, r22, -16
	call r23, seqread256_init
.Ltmp11:
	.loc	2 46 25 is_stmt 1               // dpu/task.c:46:25
	sw r22, -44, r0
	.loc	2 50 43                         // dpu/task.c:50:43
	sw r22, -40, r18
	.loc	2 52 26                         // dpu/task.c:52:26
	lw r0, r22, -32
	add r21, r21, r0
.Ltmp12:
	.loc	2 52 18 is_stmt 0               // dpu/task.c:52:18
	lsl_add r0, r16, r21, 2
	.loc	2 50 43 is_stmt 1               // dpu/task.c:50:43
	sw r22, -36, r0
.Ltmp13:
	//DEBUG_VALUE: i <- 0
	//DEBUG_VALUE: active <- 0
	.loc	2 0 43 is_stmt 0                // dpu/task.c:0:43
	lw r16, r22, -24
	move r0, r16, true, .LBB0_3
.Ltmp14:
.LBB0_11:                               //   in Loop: Header=BB0_3 Depth=3
	//DEBUG_VALUE: if_in_front:buffers <- [DW_OP_constu 20, DW_OP_minus] [$r22+0]
	//DEBUG_VALUE: if_in_front:sr <- $r15
	//DEBUG_VALUE: i <- $r0
	//DEBUG_VALUE: i <- $r16
	move r0, r19
.Ltmp15:
.LBB0_3:                                //   Parent Loop BB0_1 Depth=1
                                        //     Parent Loop BB0_2 Depth=2
                                        // =>    This Inner Loop Header: Depth=3
	//DEBUG_VALUE: if_in_front:buffers <- [DW_OP_constu 20, DW_OP_minus] [$r22+0]
	//DEBUG_VALUE: if_in_front:sr <- $r15
	//DEBUG_VALUE: active <- undef
	//DEBUG_VALUE: i <- $r16
	.loc	2 57 26 is_stmt 1               // dpu/task.c:57:26
	xor r19, r0, 1
	and r2, r19, 1
	add r1, r22, -48
	.loc	2 57 22 is_stmt 0               // dpu/task.c:57:22
	lsl_add r2, r1, r2, 2
	lw r2, r2, 0
	.loc	2 57 21                         // dpu/task.c:57:21
	lw r2, r2, 0
	.loc	2 57 37                         // dpu/task.c:57:37
	lw r3, r17, 0
	jltu r2, r3, .LBB0_5
.Ltmp16:
// %bb.4:                               //   in Loop: Header=BB0_3 Depth=3
	//DEBUG_VALUE: if_in_front:buffers <- [DW_OP_constu 20, DW_OP_minus] [$r22+0]
	//DEBUG_VALUE: i <- $r16
	//DEBUG_VALUE: if_in_front:sr <- $r15
	.loc	2 57 21                         // dpu/task.c:57:21
	move r19, r0
.Ltmp17:
.LBB0_5:                                //   in Loop: Header=BB0_3 Depth=3
	//DEBUG_VALUE: if_in_front:buffers <- [DW_OP_constu 20, DW_OP_minus] [$r22+0]
	//DEBUG_VALUE: i <- $r16
	//DEBUG_VALUE: if_in_front:sr <- $r15
	//DEBUG_VALUE: active <- undef
	.loc	2 60 31 is_stmt 1               // dpu/task.c:60:31
	and r14, r19, 1
	lsl_add r20, r1, r14, 2
	lw r0, r20, 0
	.loc	2 60 30 is_stmt 0               // dpu/task.c:60:30
	lw r1, r0, 0
.Ltmp18:
	//DEBUG_VALUE: i <- undef
	.loc	2 60 17                         // dpu/task.c:60:17
	lsl r2, r16, 2
	.loc	2 60 28                         // dpu/task.c:60:28
	sw r2, cache, r1
	.loc	2 61 68 is_stmt 1               // dpu/task.c:61:68
	lsl_add r18, r15, r14, 3
	move r1, 4
	.loc	2 61 31 is_stmt 0               // dpu/task.c:61:31
	move r2, r18
	call r23, seqread256_get
.Ltmp19:
	move r17, r0
	.loc	2 61 29                         // dpu/task.c:61:29
	sw r20, 0, r17
.Ltmp20:
	.loc	2 62 21 is_stmt 1               // dpu/task.c:62:21
	move r1, r18
	call r23, seqread256_tell
.Ltmp21:
	.loc	2 0 21 is_stmt 0                // dpu/task.c:0:21
	add r1, r22, -40
	.loc	2 62 63                         // dpu/task.c:62:63
	lsl_add r1, r1, r14, 2
	lw r1, r1, 0
	jeq r0, r1, .LBB0_6
.Ltmp22:
// %bb.9:                               //   in Loop: Header=BB0_3 Depth=3
	//DEBUG_VALUE: if_in_front:buffers <- [DW_OP_constu 20, DW_OP_minus] [$r22+0]
	//DEBUG_VALUE: if_in_front:sr <- $r15
	.loc	2 0 63                          // dpu/task.c:0:63
	add r0, r16, 1
.Ltmp23:
	//DEBUG_VALUE: i <- $r0
	move r16, 0
	.loc	2 70 21 is_stmt 1               // dpu/task.c:70:21
	jeq r0, 64, .LBB0_11
.Ltmp24:
// %bb.10:                              //   in Loop: Header=BB0_3 Depth=3
	//DEBUG_VALUE: if_in_front:buffers <- [DW_OP_constu 20, DW_OP_minus] [$r22+0]
	//DEBUG_VALUE: if_in_front:sr <- $r15
	//DEBUG_VALUE: i <- $r0
	move r16, r0, true, .LBB0_11
.Ltmp25:
.LBB0_8:
	//DEBUG_VALUE: if_in_front:buffers <- [DW_OP_constu 20, DW_OP_minus] [$r22+0]
	//DEBUG_VALUE: if_in_front:sr <- $r15
	.loc	2 76 1                          // dpu/task.c:76:1
	ld d20, r22, -80
	ld d18, r22, -72
	ld d16, r22, -64
	ld d14, r22, -56
.Ltmp26:
	ld d22, r22, -8
.Ltmp27:
	jump r23
.Ltmp28:
.Lfunc_end0:
	.size	if_in_front, .Lfunc_end0-if_in_front
	.cfi_endproc
	.section	.stack_sizes,"o",@progbits,.text.if_in_front
	.long	.Lfunc_begin0
	.byte	80
	.section	.text.if_in_front,"ax",@progbits
                                        // -- End function
	.section	.text.main,"ax",@progbits
	.globl	main                            // -- Begin function main
	.type	main,@function
main:                                   // @main
.Lfunc_begin1:
	.loc	2 78 0                          // dpu/task.c:78:0
	.cfi_startproc
// %bb.0:
	.cfi_def_cfa_offset -48
	.cfi_offset 23, -8
	.cfi_offset 22, -4
	sd r22, 40, d22
	add r22, r22, 48
	.cfi_offset 15, -48
	.cfi_offset 14, -44
	sd r22, -48, d14
	move r0, 1
.Ltmp29:
	.loc	2 79 5 prologue_end             // dpu/task.c:79:5
	move r1, r0
	call r23, perfcounter_config
.Ltmp30:
	.loc	2 82 39                         // dpu/task.c:82:39
	call r23, seqread256_alloc
.Ltmp31:
	.loc	2 82 37 is_stmt 0               // dpu/task.c:82:37
	sw r22, -40, r0
	.loc	2 82 56                         // dpu/task.c:82:56
	call r23, seqread256_alloc
.Ltmp32:
	.loc	2 82 37                         // dpu/task.c:82:37
	sw r22, -36, r0
	.loc	2 90 14 is_stmt 1               // dpu/task.c:90:14
	call r23, perfcounter_get
.Ltmp33:
	movd d14, d0
.Ltmp34:
	//DEBUG_VALUE: main:cycles <- $d14
	.loc	2 0 14 is_stmt 0                // dpu/task.c:0:14
	add r0, r22, -32
	add r1, r22, -40
	.loc	2 91 5 is_stmt 1                // dpu/task.c:91:5
	call r23, if_in_front
.Ltmp35:
	.loc	2 92 14                         // dpu/task.c:92:14
	call r23, perfcounter_get
.Ltmp36:
	.loc	2 92 32 is_stmt 0               // dpu/task.c:92:32
	sub r1, r1, r15
	subc r0, r0, r14
.Ltmp37:
	//DEBUG_VALUE: main:cycles <- $d0
	.loc	2 93 43 is_stmt 1               // dpu/task.c:93:43
	call r23, __floatundidf
.Ltmp38:
	.loc	2 93 60 is_stmt 0               // dpu/task.c:93:60
	lw r2, zero, CLOCKS_PER_SEC
	.loc	2 93 43                         // dpu/task.c:93:43
	movd d14, d0
	.loc	2 93 60                         // dpu/task.c:93:60
	move r0, r2
.Ltmp39:
	call r23, __floatunsidf
.Ltmp40:
	movd d2, d0
	.loc	2 93 58                         // dpu/task.c:93:58
	movd d0, d14
	call r23, __divdf3
.Ltmp41:
	.loc	2 0 58                          // dpu/task.c:0:58
	move r3, 0
	move r2, 1083129856
	.loc	2 93 75                         // dpu/task.c:93:75
	call r23, __muldf3
.Ltmp42:
	.loc	2 93 5                          // dpu/task.c:93:5
	move r2, .L.str
	sd r22, -16, d0
	move r0, r2
	call r23, printf
.Ltmp43:
	.loc	2 0 5                           // dpu/task.c:0:5
	move r0, 0
	.loc	2 94 1 is_stmt 1                // dpu/task.c:94:1
	ld d14, r22, -48
	ld d22, r22, -8
	jump r23
.Ltmp44:
.Lfunc_end1:
	.size	main, .Lfunc_end1-main
	.cfi_endproc
	.section	.stack_sizes,"o",@progbits,.text.main
	.long	.Lfunc_begin1
	.byte	48
	.section	.text.main,"ax",@progbits
                                        // -- End function
	.type	input,@object                   // @input
	.section	.mram.noinit,"aw",@progbits
	.globl	input
	.p2align	3
input:
	.zero	8388608
	.size	input, 8388608

	.type	cache,@object                   // @cache
	.section	.bss.cache,"aw",@nobits
	.globl	cache
	.p2align	3
cache:
	.zero	256
	.size	cache, 256

	.type	.L.str,@object                  // @.str
	.section	.rodata.str1.1,"aMS",@progbits,1
.L.str:
	.asciz	"TIME (in back):  %9.2f ms\n"
	.size	.L.str, 27

	.type	output,@object                  // @output
	.section	.mram.noinit,"aw",@progbits
	.globl	output
	.p2align	3
output:
	.zero	8388608
	.size	output, 8388608

	.file	4 "/usr/bin/../share/upmem/include/syslib" "seqread.h"
	.file	5 "/usr/bin/../share/upmem/include/stdlib" "stddef.h"